ARM GAS  C:\Users\ANNAND~1.000\AppData\Local\Temp\ccK7hBZj.s 			page 1


   1              		.syntax unified
   2              		.cpu cortex-m3
   3              		.fpu softvfp
   4              		.eabi_attribute 20, 1
   5              		.eabi_attribute 21, 1
   6              		.eabi_attribute 23, 3
   7              		.eabi_attribute 24, 1
   8              		.eabi_attribute 25, 1
   9              		.eabi_attribute 26, 1
  10              		.eabi_attribute 30, 1
  11              		.eabi_attribute 34, 1
  12              		.eabi_attribute 18, 4
  13              		.thumb
  14              		.syntax unified
  15              		.file	"main.c"
  16              		.text
  17              	.Ltext0:
  18              		.cfi_sections	.debug_frame
  19              		.section	.text.main,"ax",%progbits
  20              		.align	2
  21              		.global	main
  22              		.thumb
  23              		.thumb_func
  24              		.type	main, %function
  25              	main:
  26              	.LFB64:
  27              		.file 1 "main.c"
   1:main.c        **** /*
   2:main.c        **** Joshua Annandsingh and Brian Dawson
   3:main.c        **** Microcomputer Systems Final Project
   4:main.c        **** Rock Paper Scissors Game
   5:main.c        **** */
   6:main.c        **** #include "project.h"
   7:main.c        **** #include <string.h>
   8:main.c        **** #include <stdio.h>
   9:main.c        **** #include <stdlib.h>
  10:main.c        **** 
  11:main.c        **** 
  12:main.c        **** /*
  13:main.c        **** RULES FOR THE GAME
  14:main.c        **** SELECT LEFT BUTTON FOR 1 PLAYER AND RIGHT BUTTON FOR 2 PLAYER
  15:main.c        **** P1 USES LEFT BUTTON AND P2 USES RIGHT BUTTON
  16:main.c        **** 0=SCISSORS
  17:main.c        **** 1=ROCK
  18:main.c        **** 2=PAPER
  19:main.c        **** NUMBER OF PUSHES MOD 3 IS SELECTION NUMBER
  20:main.c        **** */
  21:main.c        **** int main(void)
  22:main.c        **** {
  28              		.loc 1 22 0
  29              		.cfi_startproc
  30              		@ args = 0, pretend = 0, frame = 256
  31              		@ frame_needed = 0, uses_anonymous_args = 0
  32 0000 70B5     		push	{r4, r5, r6, lr}
  33              		.cfi_def_cfa_offset 16
  34              		.cfi_offset 4, -16
  35              		.cfi_offset 5, -12
ARM GAS  C:\Users\ANNAND~1.000\AppData\Local\Temp\ccK7hBZj.s 			page 2


  36              		.cfi_offset 6, -8
  37              		.cfi_offset 14, -4
  38 0002 C0B0     		sub	sp, sp, #256
  39              		.cfi_def_cfa_offset 272
  23:main.c        ****     LED_Driver_1_Start();
  40              		.loc 1 23 0
  41 0004 FFF7FEFF 		bl	LED_Driver_1_Start
  42              	.LVL0:
  24:main.c        ****     LCD_Start();
  43              		.loc 1 24 0
  44 0008 FFF7FEFF 		bl	LCD_Start
  45              	.LVL1:
  25:main.c        ****     CyGlobalIntEnable; /* Enable global interrupts. */
  46              		.loc 1 25 0
  47              		.syntax unified
  48              	@ 25 "main.c" 1
  49 000c 62B6     		CPSIE   i
  50              	@ 0 "" 2
  51              		.thumb
  52              		.syntax unified
  53              	.L2:
  54              	.LVL2:
  55              	.LBB2:
  26:main.c        **** 
  27:main.c        ****     /* Place your initialization/startup code here (e.g. MyInst_Start()) */
  28:main.c        ****    
  29:main.c        ****     char output[256];
  30:main.c        ****     
  31:main.c        ****     
  32:main.c        ****     
  33:main.c        ****     for(;;)
  34:main.c        ****     {   
  35:main.c        ****         int AIgame = 0;
  36:main.c        ****         CyDelay(100);
  56              		.loc 1 36 0
  57 000e 6420     		movs	r0, #100
  58 0010 FFF7FEFF 		bl	CyDelay
  59              	.LVL3:
  37:main.c        ****         LCD_ClearDisplay();
  60              		.loc 1 37 0
  61 0014 0120     		movs	r0, #1
  62 0016 FFF7FEFF 		bl	LCD_WriteControl
  63              	.LVL4:
  38:main.c        ****         LCD_PrintString("L:1 Player");
  64              		.loc 1 38 0
  65 001a C548     		ldr	r0, .L47
  66 001c FFF7FEFF 		bl	LCD_PrintString
  67              	.LVL5:
  39:main.c        ****         LCD_Position(1,0);
  68              		.loc 1 39 0
  69 0020 0021     		movs	r1, #0
  70 0022 0120     		movs	r0, #1
  71 0024 FFF7FEFF 		bl	LCD_Position
  72              	.LVL6:
  40:main.c        ****         LCD_PrintString("R:2 Player");
  73              		.loc 1 40 0
  74 0028 C248     		ldr	r0, .L47+4
ARM GAS  C:\Users\ANNAND~1.000\AppData\Local\Temp\ccK7hBZj.s 			page 3


  75 002a FFF7FEFF 		bl	LCD_PrintString
  76              	.LVL7:
  77              	.L4:
  41:main.c        ****         while(SW_1_Read()==1 && SW_2_Read()==1){
  78              		.loc 1 41 0 discriminator 2
  79 002e FFF7FEFF 		bl	SW_1_Read
  80              	.LVL8:
  81 0032 0128     		cmp	r0, #1
  82 0034 03D1     		bne	.L3
  83              		.loc 1 41 0 is_stmt 0 discriminator 1
  84 0036 FFF7FEFF 		bl	SW_2_Read
  85              	.LVL9:
  86 003a 0128     		cmp	r0, #1
  87 003c F7D0     		beq	.L4
  88              	.L3:
  42:main.c        ****         }
  43:main.c        ****         if(SW_1_Read() == 0){                                       //1 Player
  89              		.loc 1 43 0 is_stmt 1
  90 003e FFF7FEFF 		bl	SW_1_Read
  91              	.LVL10:
  92 0042 0028     		cmp	r0, #0
  93 0044 40F00682 		bne	.L45
  94              	.LVL11:
  95              	.LBB3:
  44:main.c        ****         AIgame=1;
  45:main.c        ****         int count1 = 0,count2 = 0;
  46:main.c        ****         LED_Driver_1_ClearDisplayAll();  
  96              		.loc 1 46 0
  97 0048 FFF7FEFF 		bl	LED_Driver_1_ClearDisplayAll
  98              	.LVL12:
  47:main.c        ****         LCD_ClearDisplay();
  99              		.loc 1 47 0
 100 004c 0120     		movs	r0, #1
 101 004e FFF7FEFF 		bl	LCD_WriteControl
 102              	.LVL13:
 103              	.LBB4:
  48:main.c        ****         for(int i =9;i>=0;i--){                                     //Countdown until game starts
 104              		.loc 1 48 0
 105 0052 0924     		movs	r4, #9
 106 0054 0AE0     		b	.L6
 107              	.LVL14:
 108              	.L7:
  49:main.c        ****         LED_Driver_1_Write7SegDigitDec(i, 0);
 109              		.loc 1 49 0 discriminator 3
 110 0056 0021     		movs	r1, #0
 111 0058 E0B2     		uxtb	r0, r4
 112 005a FFF7FEFF 		bl	LED_Driver_1_Write7SegDigitDec
 113              	.LVL15:
  50:main.c        ****         CyDelay(1000);
 114              		.loc 1 50 0 discriminator 3
 115 005e 4FF47A70 		mov	r0, #1000
 116 0062 FFF7FEFF 		bl	CyDelay
 117              	.LVL16:
  51:main.c        ****         LED_Driver_1_ClearDisplayAll();
 118              		.loc 1 51 0 discriminator 3
 119 0066 FFF7FEFF 		bl	LED_Driver_1_ClearDisplayAll
 120              	.LVL17:
ARM GAS  C:\Users\ANNAND~1.000\AppData\Local\Temp\ccK7hBZj.s 			page 4


  48:main.c        ****         LED_Driver_1_Write7SegDigitDec(i, 0);
 121              		.loc 1 48 0 discriminator 3
 122 006a 013C     		subs	r4, r4, #1
 123              	.LVL18:
 124              	.L6:
  48:main.c        ****         LED_Driver_1_Write7SegDigitDec(i, 0);
 125              		.loc 1 48 0 is_stmt 0 discriminator 1
 126 006c 002C     		cmp	r4, #0
 127 006e F2DA     		bge	.L7
 128              	.LBE4:
  52:main.c        ****         }
  53:main.c        ****         LCD_PrintString("P1 GO!");
 129              		.loc 1 53 0 is_stmt 1
 130 0070 B148     		ldr	r0, .L47+8
 131 0072 FFF7FEFF 		bl	LCD_PrintString
 132              	.LVL19:
 133              	.LBB5:
  54:main.c        ****         for(int i =0; i< 30; i++){                                  //Time for P1 input
 134              		.loc 1 54 0
 135 0076 0024     		movs	r4, #0
 136              	.LVL20:
 137              	.LBE5:
  45:main.c        ****         LED_Driver_1_ClearDisplayAll();  
 138              		.loc 1 45 0
 139 0078 2546     		mov	r5, r4
 140              	.LBB6:
 141              		.loc 1 54 0
 142 007a 0BE0     		b	.L8
 143              	.LVL21:
 144              	.L11:
  55:main.c        ****         if(SW_1_Read()==0) 
 145              		.loc 1 55 0
 146 007c FFF7FEFF 		bl	SW_1_Read
 147              	.LVL22:
 148 0080 20B9     		cbnz	r0, .L9
  56:main.c        ****         {
  57:main.c        ****             count1 = count1 + 1;
 149              		.loc 1 57 0
 150 0082 0135     		adds	r5, r5, #1
 151              	.LVL23:
 152              	.L10:
  58:main.c        ****               
  59:main.c        ****             while(SW_1_Read()==0)
 153              		.loc 1 59 0 discriminator 1
 154 0084 FFF7FEFF 		bl	SW_1_Read
 155              	.LVL24:
 156 0088 0028     		cmp	r0, #0
 157 008a FBD0     		beq	.L10
 158              	.L9:
  60:main.c        ****             {
  61:main.c        ****             }
  62:main.c        ****         
  63:main.c        ****         }
  64:main.c        ****         CyDelay(100);
 159              		.loc 1 64 0 discriminator 2
 160 008c 6420     		movs	r0, #100
 161 008e FFF7FEFF 		bl	CyDelay
ARM GAS  C:\Users\ANNAND~1.000\AppData\Local\Temp\ccK7hBZj.s 			page 5


 162              	.LVL25:
  54:main.c        ****         if(SW_1_Read()==0) 
 163              		.loc 1 54 0 discriminator 2
 164 0092 0134     		adds	r4, r4, #1
 165              	.LVL26:
 166              	.L8:
  54:main.c        ****         if(SW_1_Read()==0) 
 167              		.loc 1 54 0 is_stmt 0 discriminator 1
 168 0094 1D2C     		cmp	r4, #29
 169 0096 F1DD     		ble	.L11
 170              	.LBE6:
  65:main.c        ****         }
  66:main.c        ****         LCD_ClearDisplay();
 171              		.loc 1 66 0 is_stmt 1
 172 0098 0120     		movs	r0, #1
 173 009a FFF7FEFF 		bl	LCD_WriteControl
 174              	.LVL27:
  67:main.c        ****         count2 = rand();                                            //AI Selection
 175              		.loc 1 67 0
 176 009e FFF7FEFF 		bl	rand
 177              	.LVL28:
  68:main.c        ****         
  69:main.c        ****         if(count1%3 == 0 && count2%3 ==0){
 178              		.loc 1 69 0
 179 00a2 A64B     		ldr	r3, .L47+12
 180 00a4 83FB0523 		smull	r2, r3, r3, r5
 181 00a8 A3EBE573 		sub	r3, r3, r5, asr #31
 182 00ac 03EB4303 		add	r3, r3, r3, lsl #1
 183 00b0 EB1A     		subs	r3, r5, r3
 184 00b2 2BD1     		bne	.L12
 185              		.loc 1 69 0 is_stmt 0 discriminator 1
 186 00b4 A14A     		ldr	r2, .L47+12
 187 00b6 82FB0012 		smull	r1, r2, r2, r0
 188 00ba A2EBE072 		sub	r2, r2, r0, asr #31
 189 00be 02EB4202 		add	r2, r2, r2, lsl #1
 190 00c2 9042     		cmp	r0, r2
 191 00c4 22D1     		bne	.L12
  70:main.c        ****             //Scissors v Scissors
  71:main.c        ****             LCD_ClearDisplay();
 192              		.loc 1 71 0 is_stmt 1
 193 00c6 0120     		movs	r0, #1
 194              	.LVL29:
 195 00c8 FFF7FEFF 		bl	LCD_WriteControl
 196              	.LVL30:
  72:main.c        ****             sprintf(output,"Player 1: %s","Scissors");
 197              		.loc 1 72 0
 198 00cc 9C4C     		ldr	r4, .L47+16
 199              	.LVL31:
 200 00ce 2246     		mov	r2, r4
 201 00d0 9C49     		ldr	r1, .L47+20
 202 00d2 6846     		mov	r0, sp
 203 00d4 FFF7FEFF 		bl	sprintf
 204              	.LVL32:
  73:main.c        ****             LCD_PrintString(output);
 205              		.loc 1 73 0
 206 00d8 6846     		mov	r0, sp
 207 00da FFF7FEFF 		bl	LCD_PrintString
ARM GAS  C:\Users\ANNAND~1.000\AppData\Local\Temp\ccK7hBZj.s 			page 6


 208              	.LVL33:
  74:main.c        ****             LCD_Position(1,0);
 209              		.loc 1 74 0
 210 00de 0021     		movs	r1, #0
 211 00e0 0120     		movs	r0, #1
 212 00e2 FFF7FEFF 		bl	LCD_Position
 213              	.LVL34:
  75:main.c        ****             sprintf(output,"AI: %s","Scissors");
 214              		.loc 1 75 0
 215 00e6 2246     		mov	r2, r4
 216 00e8 9749     		ldr	r1, .L47+24
 217 00ea 6846     		mov	r0, sp
 218 00ec FFF7FEFF 		bl	sprintf
 219              	.LVL35:
  76:main.c        ****             LCD_PrintString(output);
 220              		.loc 1 76 0
 221 00f0 6846     		mov	r0, sp
 222 00f2 FFF7FEFF 		bl	LCD_PrintString
 223              	.LVL36:
  77:main.c        ****             CyDelay(1500);
 224              		.loc 1 77 0
 225 00f6 40F2DC50 		movw	r0, #1500
 226 00fa FFF7FEFF 		bl	CyDelay
 227              	.LVL37:
  78:main.c        ****             LCD_ClearDisplay();
 228              		.loc 1 78 0
 229 00fe 0120     		movs	r0, #1
 230 0100 FFF7FEFF 		bl	LCD_WriteControl
 231              	.LVL38:
  79:main.c        ****             LCD_PrintString("TIE");
 232              		.loc 1 79 0
 233 0104 9148     		ldr	r0, .L47+28
 234 0106 FFF7FEFF 		bl	LCD_PrintString
 235              	.LVL39:
 236 010a 85E1     		b	.L13
 237              	.LVL40:
 238              	.L12:
  80:main.c        ****         }
  81:main.c        ****         else if(count1%3 == 0 && count2%3 ==1){
 239              		.loc 1 81 0
 240 010c 5BBB     		cbnz	r3, .L14
 241              		.loc 1 81 0 is_stmt 0 discriminator 1
 242 010e 8B4A     		ldr	r2, .L47+12
 243 0110 82FB0012 		smull	r1, r2, r2, r0
 244 0114 A2EBE072 		sub	r2, r2, r0, asr #31
 245 0118 02EB4202 		add	r2, r2, r2, lsl #1
 246 011c 821A     		subs	r2, r0, r2
 247 011e 012A     		cmp	r2, #1
 248 0120 21D1     		bne	.L14
  82:main.c        ****             //Scissors v Rock
  83:main.c        ****             LCD_ClearDisplay();
 249              		.loc 1 83 0 is_stmt 1
 250 0122 0120     		movs	r0, #1
 251              	.LVL41:
 252 0124 FFF7FEFF 		bl	LCD_WriteControl
 253              	.LVL42:
  84:main.c        ****             sprintf(output,"Player 1: %s","Scissors");
ARM GAS  C:\Users\ANNAND~1.000\AppData\Local\Temp\ccK7hBZj.s 			page 7


 254              		.loc 1 84 0
 255 0128 854A     		ldr	r2, .L47+16
 256 012a 8649     		ldr	r1, .L47+20
 257 012c 6846     		mov	r0, sp
 258 012e FFF7FEFF 		bl	sprintf
 259              	.LVL43:
  85:main.c        ****             LCD_PrintString(output);
 260              		.loc 1 85 0
 261 0132 6846     		mov	r0, sp
 262 0134 FFF7FEFF 		bl	LCD_PrintString
 263              	.LVL44:
  86:main.c        ****             LCD_Position(1,0);
 264              		.loc 1 86 0
 265 0138 0021     		movs	r1, #0
 266 013a 0120     		movs	r0, #1
 267 013c FFF7FEFF 		bl	LCD_Position
 268              	.LVL45:
  87:main.c        ****             sprintf(output,"AI: %s","Rock");
 269              		.loc 1 87 0
 270 0140 834A     		ldr	r2, .L47+32
 271 0142 8149     		ldr	r1, .L47+24
 272 0144 6846     		mov	r0, sp
 273 0146 FFF7FEFF 		bl	sprintf
 274              	.LVL46:
  88:main.c        ****             LCD_PrintString(output);
 275              		.loc 1 88 0
 276 014a 6846     		mov	r0, sp
 277 014c FFF7FEFF 		bl	LCD_PrintString
 278              	.LVL47:
  89:main.c        ****             CyDelay(1500);
 279              		.loc 1 89 0
 280 0150 40F2DC50 		movw	r0, #1500
 281 0154 FFF7FEFF 		bl	CyDelay
 282              	.LVL48:
  90:main.c        ****             LCD_ClearDisplay();
 283              		.loc 1 90 0
 284 0158 0120     		movs	r0, #1
 285 015a FFF7FEFF 		bl	LCD_WriteControl
 286              	.LVL49:
  91:main.c        ****             LCD_PrintString("AI Wins");
 287              		.loc 1 91 0
 288 015e 7D48     		ldr	r0, .L47+36
 289 0160 FFF7FEFF 		bl	LCD_PrintString
 290              	.LVL50:
 291 0164 58E1     		b	.L13
 292              	.LVL51:
 293              	.L14:
  92:main.c        ****         }
  93:main.c        ****         else if(count1%3 == 0 && count2%3 ==2){
 294              		.loc 1 93 0
 295 0166 5BBB     		cbnz	r3, .L15
 296              		.loc 1 93 0 is_stmt 0 discriminator 1
 297 0168 744A     		ldr	r2, .L47+12
 298 016a 82FB0012 		smull	r1, r2, r2, r0
 299 016e A2EBE072 		sub	r2, r2, r0, asr #31
 300 0172 02EB4202 		add	r2, r2, r2, lsl #1
 301 0176 821A     		subs	r2, r0, r2
ARM GAS  C:\Users\ANNAND~1.000\AppData\Local\Temp\ccK7hBZj.s 			page 8


 302 0178 022A     		cmp	r2, #2
 303 017a 21D1     		bne	.L15
  94:main.c        ****             //Scissors v Paper
  95:main.c        ****             LCD_ClearDisplay();
 304              		.loc 1 95 0 is_stmt 1
 305 017c 0120     		movs	r0, #1
 306              	.LVL52:
 307 017e FFF7FEFF 		bl	LCD_WriteControl
 308              	.LVL53:
  96:main.c        ****             sprintf(output,"Player 1: %s","Scissors");
 309              		.loc 1 96 0
 310 0182 6F4A     		ldr	r2, .L47+16
 311 0184 6F49     		ldr	r1, .L47+20
 312 0186 6846     		mov	r0, sp
 313 0188 FFF7FEFF 		bl	sprintf
 314              	.LVL54:
  97:main.c        ****             LCD_PrintString(output);
 315              		.loc 1 97 0
 316 018c 6846     		mov	r0, sp
 317 018e FFF7FEFF 		bl	LCD_PrintString
 318              	.LVL55:
  98:main.c        ****             LCD_Position(1,0);
 319              		.loc 1 98 0
 320 0192 0021     		movs	r1, #0
 321 0194 0120     		movs	r0, #1
 322 0196 FFF7FEFF 		bl	LCD_Position
 323              	.LVL56:
  99:main.c        ****             sprintf(output,"AI: %s","Paper");
 324              		.loc 1 99 0
 325 019a 6F4A     		ldr	r2, .L47+40
 326 019c 6A49     		ldr	r1, .L47+24
 327 019e 6846     		mov	r0, sp
 328 01a0 FFF7FEFF 		bl	sprintf
 329              	.LVL57:
 100:main.c        ****             LCD_PrintString(output);
 330              		.loc 1 100 0
 331 01a4 6846     		mov	r0, sp
 332 01a6 FFF7FEFF 		bl	LCD_PrintString
 333              	.LVL58:
 101:main.c        ****             CyDelay(1500);
 334              		.loc 1 101 0
 335 01aa 40F2DC50 		movw	r0, #1500
 336 01ae FFF7FEFF 		bl	CyDelay
 337              	.LVL59:
 102:main.c        ****             LCD_ClearDisplay();
 338              		.loc 1 102 0
 339 01b2 0120     		movs	r0, #1
 340 01b4 FFF7FEFF 		bl	LCD_WriteControl
 341              	.LVL60:
 103:main.c        ****             LCD_PrintString("P1 Wins");
 342              		.loc 1 103 0
 343 01b8 6848     		ldr	r0, .L47+44
 344 01ba FFF7FEFF 		bl	LCD_PrintString
 345              	.LVL61:
 346 01be 2BE1     		b	.L13
 347              	.LVL62:
 348              	.L15:
ARM GAS  C:\Users\ANNAND~1.000\AppData\Local\Temp\ccK7hBZj.s 			page 9


 104:main.c        ****         }
 105:main.c        ****         else if(count1%3 == 1 && count2%3 ==0){
 349              		.loc 1 105 0
 350 01c0 012B     		cmp	r3, #1
 351 01c2 2AD1     		bne	.L16
 352              		.loc 1 105 0 is_stmt 0 discriminator 1
 353 01c4 5D4A     		ldr	r2, .L47+12
 354 01c6 82FB0012 		smull	r1, r2, r2, r0
 355 01ca A2EBE072 		sub	r2, r2, r0, asr #31
 356 01ce 02EB4202 		add	r2, r2, r2, lsl #1
 357 01d2 9042     		cmp	r0, r2
 358 01d4 21D1     		bne	.L16
 106:main.c        ****             //Rock v Scissors
 107:main.c        ****             LCD_ClearDisplay();
 359              		.loc 1 107 0 is_stmt 1
 360 01d6 0120     		movs	r0, #1
 361              	.LVL63:
 362 01d8 FFF7FEFF 		bl	LCD_WriteControl
 363              	.LVL64:
 108:main.c        ****             sprintf(output,"Player 1: %s","Rock");
 364              		.loc 1 108 0
 365 01dc 5C4A     		ldr	r2, .L47+32
 366 01de 5949     		ldr	r1, .L47+20
 367 01e0 6846     		mov	r0, sp
 368 01e2 FFF7FEFF 		bl	sprintf
 369              	.LVL65:
 109:main.c        ****             LCD_PrintString(output);
 370              		.loc 1 109 0
 371 01e6 6846     		mov	r0, sp
 372 01e8 FFF7FEFF 		bl	LCD_PrintString
 373              	.LVL66:
 110:main.c        ****             LCD_Position(1,0);
 374              		.loc 1 110 0
 375 01ec 0021     		movs	r1, #0
 376 01ee 0120     		movs	r0, #1
 377 01f0 FFF7FEFF 		bl	LCD_Position
 378              	.LVL67:
 111:main.c        ****             sprintf(output,"AI: %s","Scissors");
 379              		.loc 1 111 0
 380 01f4 524A     		ldr	r2, .L47+16
 381 01f6 5449     		ldr	r1, .L47+24
 382 01f8 6846     		mov	r0, sp
 383 01fa FFF7FEFF 		bl	sprintf
 384              	.LVL68:
 112:main.c        ****             LCD_PrintString(output);
 385              		.loc 1 112 0
 386 01fe 6846     		mov	r0, sp
 387 0200 FFF7FEFF 		bl	LCD_PrintString
 388              	.LVL69:
 113:main.c        ****             CyDelay(1500);
 389              		.loc 1 113 0
 390 0204 40F2DC50 		movw	r0, #1500
 391 0208 FFF7FEFF 		bl	CyDelay
 392              	.LVL70:
 114:main.c        ****             LCD_ClearDisplay();
 393              		.loc 1 114 0
 394 020c 0120     		movs	r0, #1
ARM GAS  C:\Users\ANNAND~1.000\AppData\Local\Temp\ccK7hBZj.s 			page 10


 395 020e FFF7FEFF 		bl	LCD_WriteControl
 396              	.LVL71:
 115:main.c        ****             LCD_PrintString("P1 Wins");
 397              		.loc 1 115 0
 398 0212 5248     		ldr	r0, .L47+44
 399 0214 FFF7FEFF 		bl	LCD_PrintString
 400              	.LVL72:
 401 0218 FEE0     		b	.L13
 402              	.LVL73:
 403              	.L16:
 116:main.c        ****         }
 117:main.c        ****         else if(count1%3 == 1 && count2%3 ==1){
 404              		.loc 1 117 0
 405 021a 012B     		cmp	r3, #1
 406 021c 2CD1     		bne	.L17
 407              		.loc 1 117 0 is_stmt 0 discriminator 1
 408 021e 474A     		ldr	r2, .L47+12
 409 0220 82FB0012 		smull	r1, r2, r2, r0
 410 0224 A2EBE072 		sub	r2, r2, r0, asr #31
 411 0228 02EB4202 		add	r2, r2, r2, lsl #1
 412 022c 821A     		subs	r2, r0, r2
 413 022e 012A     		cmp	r2, #1
 414 0230 22D1     		bne	.L17
 118:main.c        ****             //Rock v Rock
 119:main.c        ****             LCD_ClearDisplay();
 415              		.loc 1 119 0 is_stmt 1
 416 0232 0120     		movs	r0, #1
 417              	.LVL74:
 418 0234 FFF7FEFF 		bl	LCD_WriteControl
 419              	.LVL75:
 120:main.c        ****             sprintf(output,"Player 1: %s","Rock");
 420              		.loc 1 120 0
 421 0238 454C     		ldr	r4, .L47+32
 422              	.LVL76:
 423 023a 2246     		mov	r2, r4
 424 023c 4149     		ldr	r1, .L47+20
 425 023e 6846     		mov	r0, sp
 426 0240 FFF7FEFF 		bl	sprintf
 427              	.LVL77:
 121:main.c        ****             LCD_PrintString(output);
 428              		.loc 1 121 0
 429 0244 6846     		mov	r0, sp
 430 0246 FFF7FEFF 		bl	LCD_PrintString
 431              	.LVL78:
 122:main.c        ****             LCD_Position(1,0);
 432              		.loc 1 122 0
 433 024a 0021     		movs	r1, #0
 434 024c 0120     		movs	r0, #1
 435 024e FFF7FEFF 		bl	LCD_Position
 436              	.LVL79:
 123:main.c        ****             sprintf(output,"AI: %s","Rock");
 437              		.loc 1 123 0
 438 0252 2246     		mov	r2, r4
 439 0254 3C49     		ldr	r1, .L47+24
 440 0256 6846     		mov	r0, sp
 441 0258 FFF7FEFF 		bl	sprintf
 442              	.LVL80:
ARM GAS  C:\Users\ANNAND~1.000\AppData\Local\Temp\ccK7hBZj.s 			page 11


 124:main.c        ****             LCD_PrintString(output);
 443              		.loc 1 124 0
 444 025c 6846     		mov	r0, sp
 445 025e FFF7FEFF 		bl	LCD_PrintString
 446              	.LVL81:
 125:main.c        ****             CyDelay(1500);
 447              		.loc 1 125 0
 448 0262 40F2DC50 		movw	r0, #1500
 449 0266 FFF7FEFF 		bl	CyDelay
 450              	.LVL82:
 126:main.c        ****             LCD_ClearDisplay();
 451              		.loc 1 126 0
 452 026a 0120     		movs	r0, #1
 453 026c FFF7FEFF 		bl	LCD_WriteControl
 454              	.LVL83:
 127:main.c        ****             LCD_PrintString("TIE");
 455              		.loc 1 127 0
 456 0270 3648     		ldr	r0, .L47+28
 457 0272 FFF7FEFF 		bl	LCD_PrintString
 458              	.LVL84:
 459 0276 CFE0     		b	.L13
 460              	.LVL85:
 461              	.L17:
 128:main.c        ****         }
 129:main.c        ****         else if(count1%3 == 1 && count2%3 ==2){
 462              		.loc 1 129 0
 463 0278 012B     		cmp	r3, #1
 464 027a 2BD1     		bne	.L18
 465              		.loc 1 129 0 is_stmt 0 discriminator 1
 466 027c 2F4A     		ldr	r2, .L47+12
 467 027e 82FB0012 		smull	r1, r2, r2, r0
 468 0282 A2EBE072 		sub	r2, r2, r0, asr #31
 469 0286 02EB4202 		add	r2, r2, r2, lsl #1
 470 028a 821A     		subs	r2, r0, r2
 471 028c 022A     		cmp	r2, #2
 472 028e 21D1     		bne	.L18
 130:main.c        ****             //Rock v Paper
 131:main.c        ****             LCD_ClearDisplay();
 473              		.loc 1 131 0 is_stmt 1
 474 0290 0120     		movs	r0, #1
 475              	.LVL86:
 476 0292 FFF7FEFF 		bl	LCD_WriteControl
 477              	.LVL87:
 132:main.c        ****             sprintf(output,"Player 1: %s","Rock");
 478              		.loc 1 132 0
 479 0296 2E4A     		ldr	r2, .L47+32
 480 0298 2A49     		ldr	r1, .L47+20
 481 029a 6846     		mov	r0, sp
 482 029c FFF7FEFF 		bl	sprintf
 483              	.LVL88:
 133:main.c        ****             LCD_PrintString(output);
 484              		.loc 1 133 0
 485 02a0 6846     		mov	r0, sp
 486 02a2 FFF7FEFF 		bl	LCD_PrintString
 487              	.LVL89:
 134:main.c        ****             LCD_Position(1,0);
 488              		.loc 1 134 0
ARM GAS  C:\Users\ANNAND~1.000\AppData\Local\Temp\ccK7hBZj.s 			page 12


 489 02a6 0021     		movs	r1, #0
 490 02a8 0120     		movs	r0, #1
 491 02aa FFF7FEFF 		bl	LCD_Position
 492              	.LVL90:
 135:main.c        ****             sprintf(output,"AI: %s","Paper");
 493              		.loc 1 135 0
 494 02ae 2A4A     		ldr	r2, .L47+40
 495 02b0 2549     		ldr	r1, .L47+24
 496 02b2 6846     		mov	r0, sp
 497 02b4 FFF7FEFF 		bl	sprintf
 498              	.LVL91:
 136:main.c        ****             LCD_PrintString(output);
 499              		.loc 1 136 0
 500 02b8 6846     		mov	r0, sp
 501 02ba FFF7FEFF 		bl	LCD_PrintString
 502              	.LVL92:
 137:main.c        ****             CyDelay(1500);
 503              		.loc 1 137 0
 504 02be 40F2DC50 		movw	r0, #1500
 505 02c2 FFF7FEFF 		bl	CyDelay
 506              	.LVL93:
 138:main.c        ****             LCD_ClearDisplay();
 507              		.loc 1 138 0
 508 02c6 0120     		movs	r0, #1
 509 02c8 FFF7FEFF 		bl	LCD_WriteControl
 510              	.LVL94:
 139:main.c        ****             LCD_PrintString("AI Wins");
 511              		.loc 1 139 0
 512 02cc 2148     		ldr	r0, .L47+36
 513 02ce FFF7FEFF 		bl	LCD_PrintString
 514              	.LVL95:
 515 02d2 A1E0     		b	.L13
 516              	.LVL96:
 517              	.L18:
 140:main.c        ****         }
 141:main.c        ****         else if(count1%3 == 2 && count2%3 ==0){
 518              		.loc 1 141 0
 519 02d4 022B     		cmp	r3, #2
 520 02d6 43D1     		bne	.L19
 521              		.loc 1 141 0 is_stmt 0 discriminator 1
 522 02d8 184A     		ldr	r2, .L47+12
 523 02da 82FB0012 		smull	r1, r2, r2, r0
 524 02de A2EBE072 		sub	r2, r2, r0, asr #31
 525 02e2 02EB4202 		add	r2, r2, r2, lsl #1
 526 02e6 9042     		cmp	r0, r2
 527 02e8 3AD1     		bne	.L19
 142:main.c        ****             //Paper v Scissors
 143:main.c        ****             LCD_ClearDisplay();
 528              		.loc 1 143 0 is_stmt 1
 529 02ea 0120     		movs	r0, #1
 530              	.LVL97:
 531 02ec FFF7FEFF 		bl	LCD_WriteControl
 532              	.LVL98:
 144:main.c        ****             sprintf(output,"Player 1: %s","Paper");
 533              		.loc 1 144 0
 534 02f0 194A     		ldr	r2, .L47+40
 535 02f2 1449     		ldr	r1, .L47+20
ARM GAS  C:\Users\ANNAND~1.000\AppData\Local\Temp\ccK7hBZj.s 			page 13


 536 02f4 6846     		mov	r0, sp
 537 02f6 FFF7FEFF 		bl	sprintf
 538              	.LVL99:
 145:main.c        ****             LCD_PrintString(output);
 539              		.loc 1 145 0
 540 02fa 6846     		mov	r0, sp
 541 02fc FFF7FEFF 		bl	LCD_PrintString
 542              	.LVL100:
 146:main.c        ****             LCD_Position(1,0);
 543              		.loc 1 146 0
 544 0300 0021     		movs	r1, #0
 545 0302 0120     		movs	r0, #1
 546 0304 FFF7FEFF 		bl	LCD_Position
 547              	.LVL101:
 147:main.c        ****             sprintf(output,"AI: %s","Scissors");
 548              		.loc 1 147 0
 549 0308 0D4A     		ldr	r2, .L47+16
 550 030a 0F49     		ldr	r1, .L47+24
 551 030c 6846     		mov	r0, sp
 552 030e FFF7FEFF 		bl	sprintf
 553              	.LVL102:
 148:main.c        ****             LCD_PrintString(output);
 554              		.loc 1 148 0
 555 0312 6846     		mov	r0, sp
 556 0314 FFF7FEFF 		bl	LCD_PrintString
 557              	.LVL103:
 149:main.c        ****             CyDelay(1500);
 558              		.loc 1 149 0
 559 0318 40F2DC50 		movw	r0, #1500
 560 031c FFF7FEFF 		bl	CyDelay
 561              	.LVL104:
 150:main.c        ****             LCD_ClearDisplay();
 562              		.loc 1 150 0
 563 0320 0120     		movs	r0, #1
 564 0322 FFF7FEFF 		bl	LCD_WriteControl
 565              	.LVL105:
 151:main.c        ****             LCD_PrintString("AI Wins");
 566              		.loc 1 151 0
 567 0326 0B48     		ldr	r0, .L47+36
 568 0328 FFF7FEFF 		bl	LCD_PrintString
 569              	.LVL106:
 570 032c 74E0     		b	.L13
 571              	.L48:
 572 032e 00BF     		.align	2
 573              	.L47:
 574 0330 00000000 		.word	.LC0
 575 0334 0C000000 		.word	.LC1
 576 0338 18000000 		.word	.LC2
 577 033c 56555555 		.word	1431655766
 578 0340 20000000 		.word	.LC3
 579 0344 2C000000 		.word	.LC4
 580 0348 3C000000 		.word	.LC5
 581 034c 44000000 		.word	.LC6
 582 0350 48000000 		.word	.LC7
 583 0354 50000000 		.word	.LC8
 584 0358 58000000 		.word	.LC9
 585 035c 60000000 		.word	.LC10
ARM GAS  C:\Users\ANNAND~1.000\AppData\Local\Temp\ccK7hBZj.s 			page 14


 586              	.LVL107:
 587              	.L19:
 152:main.c        ****         }
 153:main.c        ****         else if(count1%3 == 2 && count2%3 ==1){
 588              		.loc 1 153 0
 589 0360 022B     		cmp	r3, #2
 590 0362 2BD1     		bne	.L20
 591              		.loc 1 153 0 is_stmt 0 discriminator 1
 592 0364 BE4A     		ldr	r2, .L49
 593 0366 82FB0012 		smull	r1, r2, r2, r0
 594 036a A2EBE072 		sub	r2, r2, r0, asr #31
 595 036e 02EB4202 		add	r2, r2, r2, lsl #1
 596 0372 821A     		subs	r2, r0, r2
 597 0374 012A     		cmp	r2, #1
 598 0376 21D1     		bne	.L20
 154:main.c        ****             //Paper v Rock
 155:main.c        ****             LCD_ClearDisplay();
 599              		.loc 1 155 0 is_stmt 1
 600 0378 0120     		movs	r0, #1
 601              	.LVL108:
 602 037a FFF7FEFF 		bl	LCD_WriteControl
 603              	.LVL109:
 156:main.c        ****             sprintf(output,"Player 1: %s","Paper");
 604              		.loc 1 156 0
 605 037e B94A     		ldr	r2, .L49+4
 606 0380 B949     		ldr	r1, .L49+8
 607 0382 6846     		mov	r0, sp
 608 0384 FFF7FEFF 		bl	sprintf
 609              	.LVL110:
 157:main.c        ****             LCD_PrintString(output);
 610              		.loc 1 157 0
 611 0388 6846     		mov	r0, sp
 612 038a FFF7FEFF 		bl	LCD_PrintString
 613              	.LVL111:
 158:main.c        ****             LCD_Position(1,0);
 614              		.loc 1 158 0
 615 038e 0021     		movs	r1, #0
 616 0390 0120     		movs	r0, #1
 617 0392 FFF7FEFF 		bl	LCD_Position
 618              	.LVL112:
 159:main.c        ****             sprintf(output,"AI: %s","Rock");
 619              		.loc 1 159 0
 620 0396 B54A     		ldr	r2, .L49+12
 621 0398 B549     		ldr	r1, .L49+16
 622 039a 6846     		mov	r0, sp
 623 039c FFF7FEFF 		bl	sprintf
 624              	.LVL113:
 160:main.c        ****             LCD_PrintString(output);
 625              		.loc 1 160 0
 626 03a0 6846     		mov	r0, sp
 627 03a2 FFF7FEFF 		bl	LCD_PrintString
 628              	.LVL114:
 161:main.c        ****             CyDelay(1500);
 629              		.loc 1 161 0
 630 03a6 40F2DC50 		movw	r0, #1500
 631 03aa FFF7FEFF 		bl	CyDelay
 632              	.LVL115:
ARM GAS  C:\Users\ANNAND~1.000\AppData\Local\Temp\ccK7hBZj.s 			page 15


 162:main.c        ****             LCD_ClearDisplay();
 633              		.loc 1 162 0
 634 03ae 0120     		movs	r0, #1
 635 03b0 FFF7FEFF 		bl	LCD_WriteControl
 636              	.LVL116:
 163:main.c        ****             LCD_PrintString("P1 Wins");
 637              		.loc 1 163 0
 638 03b4 AF48     		ldr	r0, .L49+20
 639 03b6 FFF7FEFF 		bl	LCD_PrintString
 640              	.LVL117:
 641 03ba 2DE0     		b	.L13
 642              	.LVL118:
 643              	.L20:
 164:main.c        ****         }
 165:main.c        ****         else if(count1%3 == 2 && count2%3 == 2){
 644              		.loc 1 165 0
 645 03bc 022B     		cmp	r3, #2
 646 03be 2BD1     		bne	.L13
 647              		.loc 1 165 0 is_stmt 0 discriminator 1
 648 03c0 A74B     		ldr	r3, .L49
 649 03c2 83FB0023 		smull	r2, r3, r3, r0
 650 03c6 A3EBE073 		sub	r3, r3, r0, asr #31
 651 03ca 03EB4303 		add	r3, r3, r3, lsl #1
 652 03ce C31A     		subs	r3, r0, r3
 653 03d0 022B     		cmp	r3, #2
 654 03d2 21D1     		bne	.L13
 166:main.c        ****             //Paper v Paper
 167:main.c        ****             LCD_ClearDisplay();
 655              		.loc 1 167 0 is_stmt 1
 656 03d4 0120     		movs	r0, #1
 657              	.LVL119:
 658 03d6 FFF7FEFF 		bl	LCD_WriteControl
 659              	.LVL120:
 168:main.c        ****             sprintf(output,"Player 1: %s","Paper");
 660              		.loc 1 168 0
 661 03da A24C     		ldr	r4, .L49+4
 662              	.LVL121:
 663 03dc 2246     		mov	r2, r4
 664 03de A249     		ldr	r1, .L49+8
 665 03e0 6846     		mov	r0, sp
 666 03e2 FFF7FEFF 		bl	sprintf
 667              	.LVL122:
 169:main.c        ****             LCD_PrintString(output);
 668              		.loc 1 169 0
 669 03e6 6846     		mov	r0, sp
 670 03e8 FFF7FEFF 		bl	LCD_PrintString
 671              	.LVL123:
 170:main.c        ****             LCD_Position(1,0);
 672              		.loc 1 170 0
 673 03ec 0021     		movs	r1, #0
 674 03ee 0120     		movs	r0, #1
 675 03f0 FFF7FEFF 		bl	LCD_Position
 676              	.LVL124:
 171:main.c        ****             sprintf(output,"AI: %s","Paper");
 677              		.loc 1 171 0
 678 03f4 2246     		mov	r2, r4
 679 03f6 9E49     		ldr	r1, .L49+16
ARM GAS  C:\Users\ANNAND~1.000\AppData\Local\Temp\ccK7hBZj.s 			page 16


 680 03f8 6846     		mov	r0, sp
 681 03fa FFF7FEFF 		bl	sprintf
 682              	.LVL125:
 172:main.c        ****             LCD_PrintString(output);
 683              		.loc 1 172 0
 684 03fe 6846     		mov	r0, sp
 685 0400 FFF7FEFF 		bl	LCD_PrintString
 686              	.LVL126:
 173:main.c        ****             CyDelay(1500);
 687              		.loc 1 173 0
 688 0404 40F2DC50 		movw	r0, #1500
 689 0408 FFF7FEFF 		bl	CyDelay
 690              	.LVL127:
 174:main.c        ****             LCD_ClearDisplay();
 691              		.loc 1 174 0
 692 040c 0120     		movs	r0, #1
 693 040e FFF7FEFF 		bl	LCD_WriteControl
 694              	.LVL128:
 175:main.c        ****             LCD_PrintString("TIE");
 695              		.loc 1 175 0
 696 0412 9948     		ldr	r0, .L49+24
 697 0414 FFF7FEFF 		bl	LCD_PrintString
 698              	.LVL129:
 699              	.L13:
 176:main.c        ****         }
 177:main.c        ****         CyDelay(1500);
 700              		.loc 1 177 0
 701 0418 40F2DC50 		movw	r0, #1500
 702 041c FFF7FEFF 		bl	CyDelay
 703              	.LVL130:
 178:main.c        ****         LCD_ClearDisplay();
 704              		.loc 1 178 0
 705 0420 0120     		movs	r0, #1
 706 0422 FFF7FEFF 		bl	LCD_WriteControl
 707              	.LVL131:
 179:main.c        ****         LCD_PrintString("Press Any Button");                        //Restart Section
 708              		.loc 1 179 0
 709 0426 9548     		ldr	r0, .L49+28
 710 0428 FFF7FEFF 		bl	LCD_PrintString
 711              	.LVL132:
 180:main.c        ****         LCD_Position(1,0);
 712              		.loc 1 180 0
 713 042c 0021     		movs	r1, #0
 714 042e 0120     		movs	r0, #1
 715 0430 FFF7FEFF 		bl	LCD_Position
 716              	.LVL133:
 181:main.c        ****         LCD_PrintString("to restart");
 717              		.loc 1 181 0
 718 0434 9248     		ldr	r0, .L49+32
 719 0436 FFF7FEFF 		bl	LCD_PrintString
 720              	.LVL134:
 721              	.L22:
 182:main.c        ****         while(SW_1_Read()==1 && SW_2_Read()==1){
 722              		.loc 1 182 0 discriminator 2
 723 043a FFF7FEFF 		bl	SW_1_Read
 724              	.LVL135:
 725 043e 0128     		cmp	r0, #1
ARM GAS  C:\Users\ANNAND~1.000\AppData\Local\Temp\ccK7hBZj.s 			page 17


 726 0440 03D1     		bne	.L21
 727              		.loc 1 182 0 is_stmt 0 discriminator 1
 728 0442 FFF7FEFF 		bl	SW_2_Read
 729              	.LVL136:
 730 0446 0128     		cmp	r0, #1
 731 0448 F7D0     		beq	.L22
 732              	.L21:
 183:main.c        ****         }
 184:main.c        ****         CyDelay(100);
 733              		.loc 1 184 0 is_stmt 1
 734 044a 6420     		movs	r0, #100
 735 044c FFF7FEFF 		bl	CyDelay
 736              	.LVL137:
  44:main.c        ****         int count1 = 0,count2 = 0;
 737              		.loc 1 44 0
 738 0450 0124     		movs	r4, #1
 739 0452 00E0     		b	.L5
 740              	.LVL138:
 741              	.L45:
 742              	.LBE3:
  35:main.c        ****         CyDelay(100);
 743              		.loc 1 35 0
 744 0454 0024     		movs	r4, #0
 745              	.LVL139:
 746              	.L5:
 185:main.c        ****         }
 186:main.c        ****         
 187:main.c        ****         
 188:main.c        ****         
 189:main.c        ****         if(SW_2_Read() == 0 && AIgame==0){                          //2 Player
 747              		.loc 1 189 0
 748 0456 FFF7FEFF 		bl	SW_2_Read
 749              	.LVL140:
 750 045a 0028     		cmp	r0, #0
 751 045c 7FF4D7AD 		bne	.L2
 752              		.loc 1 189 0 is_stmt 0 discriminator 1
 753 0460 002C     		cmp	r4, #0
 754 0462 7FF4D4AD 		bne	.L2
 755              	.LBB7:
 190:main.c        ****         LCD_ClearDisplay();    
 756              		.loc 1 190 0 is_stmt 1
 757 0466 0120     		movs	r0, #1
 758 0468 FFF7FEFF 		bl	LCD_WriteControl
 759              	.LVL141:
 760              	.LBB8:
 191:main.c        ****         int count1 = 0,count2 = 0;
 192:main.c        ****         for(int i =9;i>=0;i--){                                     //Countdown
 761              		.loc 1 192 0
 762 046c 0924     		movs	r4, #9
 763              	.LVL142:
 764 046e 0AE0     		b	.L24
 765              	.LVL143:
 766              	.L25:
 193:main.c        ****         LED_Driver_1_Write7SegDigitDec(i, 0);
 767              		.loc 1 193 0 discriminator 3
 768 0470 0021     		movs	r1, #0
 769 0472 E0B2     		uxtb	r0, r4
ARM GAS  C:\Users\ANNAND~1.000\AppData\Local\Temp\ccK7hBZj.s 			page 18


 770 0474 FFF7FEFF 		bl	LED_Driver_1_Write7SegDigitDec
 771              	.LVL144:
 194:main.c        ****         CyDelay(1000);
 772              		.loc 1 194 0 discriminator 3
 773 0478 4FF47A70 		mov	r0, #1000
 774 047c FFF7FEFF 		bl	CyDelay
 775              	.LVL145:
 195:main.c        ****         LED_Driver_1_ClearDisplayAll();
 776              		.loc 1 195 0 discriminator 3
 777 0480 FFF7FEFF 		bl	LED_Driver_1_ClearDisplayAll
 778              	.LVL146:
 192:main.c        ****         LED_Driver_1_Write7SegDigitDec(i, 0);
 779              		.loc 1 192 0 discriminator 3
 780 0484 013C     		subs	r4, r4, #1
 781              	.LVL147:
 782              	.L24:
 192:main.c        ****         LED_Driver_1_Write7SegDigitDec(i, 0);
 783              		.loc 1 192 0 is_stmt 0 discriminator 1
 784 0486 002C     		cmp	r4, #0
 785 0488 F2DA     		bge	.L25
 786              	.LBE8:
 196:main.c        ****         }
 197:main.c        ****         LCD_ClearDisplay();
 787              		.loc 1 197 0 is_stmt 1
 788 048a 0120     		movs	r0, #1
 789 048c FFF7FEFF 		bl	LCD_WriteControl
 790              	.LVL148:
 198:main.c        ****         LCD_PrintString("P1 GO!");
 791              		.loc 1 198 0
 792 0490 7C48     		ldr	r0, .L49+36
 793 0492 FFF7FEFF 		bl	LCD_PrintString
 794              	.LVL149:
 795              	.LBB9:
 199:main.c        ****         for(int i =0; i< 30; i++){
 796              		.loc 1 199 0
 797 0496 0024     		movs	r4, #0
 798              	.LVL150:
 799              	.LBE9:
 191:main.c        ****         for(int i =9;i>=0;i--){                                     //Countdown
 800              		.loc 1 191 0
 801 0498 2646     		mov	r6, r4
 802              	.LBB10:
 803              		.loc 1 199 0
 804 049a 0BE0     		b	.L26
 805              	.LVL151:
 806              	.L29:
 200:main.c        ****         if(SW_1_Read()==0)
 807              		.loc 1 200 0
 808 049c FFF7FEFF 		bl	SW_1_Read
 809              	.LVL152:
 810 04a0 20B9     		cbnz	r0, .L27
 201:main.c        ****         {
 202:main.c        ****               count1 = count1 + 1;
 811              		.loc 1 202 0
 812 04a2 0136     		adds	r6, r6, #1
 813              	.LVL153:
 814              	.L28:
ARM GAS  C:\Users\ANNAND~1.000\AppData\Local\Temp\ccK7hBZj.s 			page 19


 203:main.c        ****               
 204:main.c        ****             while(SW_1_Read()==0)
 815              		.loc 1 204 0 discriminator 1
 816 04a4 FFF7FEFF 		bl	SW_1_Read
 817              	.LVL154:
 818 04a8 0028     		cmp	r0, #0
 819 04aa FBD0     		beq	.L28
 820              	.L27:
 205:main.c        ****             {
 206:main.c        ****             }
 207:main.c        ****         
 208:main.c        ****         }
 209:main.c        ****         CyDelay(100);
 821              		.loc 1 209 0 discriminator 2
 822 04ac 6420     		movs	r0, #100
 823 04ae FFF7FEFF 		bl	CyDelay
 824              	.LVL155:
 199:main.c        ****         if(SW_1_Read()==0)
 825              		.loc 1 199 0 discriminator 2
 826 04b2 0134     		adds	r4, r4, #1
 827              	.LVL156:
 828              	.L26:
 199:main.c        ****         if(SW_1_Read()==0)
 829              		.loc 1 199 0 is_stmt 0 discriminator 1
 830 04b4 1D2C     		cmp	r4, #29
 831 04b6 F1DD     		ble	.L29
 832              	.LBE10:
 210:main.c        ****         }                             //Time for P1 Selection
 211:main.c        ****         LCD_ClearDisplay();
 833              		.loc 1 211 0 is_stmt 1
 834 04b8 0120     		movs	r0, #1
 835 04ba FFF7FEFF 		bl	LCD_WriteControl
 836              	.LVL157:
 212:main.c        ****         LCD_PrintString("P2 GO!");
 837              		.loc 1 212 0
 838 04be 7248     		ldr	r0, .L49+40
 839 04c0 FFF7FEFF 		bl	LCD_PrintString
 840              	.LVL158:
 841              	.LBB11:
 213:main.c        ****         for(int i =0; i< 30; i++){
 842              		.loc 1 213 0
 843 04c4 0024     		movs	r4, #0
 844              	.LVL159:
 845              	.LBE11:
 191:main.c        ****         for(int i =9;i>=0;i--){                                     //Countdown
 846              		.loc 1 191 0
 847 04c6 2546     		mov	r5, r4
 848              	.LBB12:
 849              		.loc 1 213 0
 850 04c8 0BE0     		b	.L30
 851              	.LVL160:
 852              	.L33:
 214:main.c        ****         if(SW_2_Read()==0)
 853              		.loc 1 214 0
 854 04ca FFF7FEFF 		bl	SW_2_Read
 855              	.LVL161:
 856 04ce 20B9     		cbnz	r0, .L31
ARM GAS  C:\Users\ANNAND~1.000\AppData\Local\Temp\ccK7hBZj.s 			page 20


 215:main.c        ****         {
 216:main.c        ****               count2 = count2 + 1;
 857              		.loc 1 216 0
 858 04d0 0135     		adds	r5, r5, #1
 859              	.LVL162:
 860              	.L32:
 217:main.c        ****               
 218:main.c        ****             while(SW_2_Read()==0)
 861              		.loc 1 218 0 discriminator 1
 862 04d2 FFF7FEFF 		bl	SW_2_Read
 863              	.LVL163:
 864 04d6 0028     		cmp	r0, #0
 865 04d8 FBD0     		beq	.L32
 866              	.L31:
 219:main.c        ****             {
 220:main.c        ****             }
 221:main.c        ****         
 222:main.c        ****         }
 223:main.c        ****         CyDelay(100);
 867              		.loc 1 223 0 discriminator 2
 868 04da 6420     		movs	r0, #100
 869 04dc FFF7FEFF 		bl	CyDelay
 870              	.LVL164:
 213:main.c        ****         if(SW_2_Read()==0)
 871              		.loc 1 213 0 discriminator 2
 872 04e0 0134     		adds	r4, r4, #1
 873              	.LVL165:
 874              	.L30:
 213:main.c        ****         if(SW_2_Read()==0)
 875              		.loc 1 213 0 is_stmt 0 discriminator 1
 876 04e2 1D2C     		cmp	r4, #29
 877 04e4 F1DD     		ble	.L33
 878              	.LBE12:
 224:main.c        ****         }                             //Time for P2 Selection
 225:main.c        ****         
 226:main.c        ****         if(count1%3 == 0 && count2%3 ==0){
 879              		.loc 1 226 0 is_stmt 1
 880 04e6 5E4B     		ldr	r3, .L49
 881 04e8 83FB0623 		smull	r2, r3, r3, r6
 882 04ec A3EBE673 		sub	r3, r3, r6, asr #31
 883 04f0 03EB4303 		add	r3, r3, r3, lsl #1
 884 04f4 F31A     		subs	r3, r6, r3
 885 04f6 2BD1     		bne	.L34
 886              		.loc 1 226 0 is_stmt 0 discriminator 1
 887 04f8 594A     		ldr	r2, .L49
 888 04fa 82FB0512 		smull	r1, r2, r2, r5
 889 04fe A2EBE572 		sub	r2, r2, r5, asr #31
 890 0502 02EB4202 		add	r2, r2, r2, lsl #1
 891 0506 9542     		cmp	r5, r2
 892 0508 22D1     		bne	.L34
 227:main.c        ****             //Scissors v Scissors
 228:main.c        ****             LCD_ClearDisplay();
 893              		.loc 1 228 0 is_stmt 1
 894 050a 0120     		movs	r0, #1
 895 050c FFF7FEFF 		bl	LCD_WriteControl
 896              	.LVL166:
 229:main.c        ****             sprintf(output,"Player 1: %s","Scissors");
ARM GAS  C:\Users\ANNAND~1.000\AppData\Local\Temp\ccK7hBZj.s 			page 21


 897              		.loc 1 229 0
 898 0510 5E4C     		ldr	r4, .L49+44
 899              	.LVL167:
 900 0512 2246     		mov	r2, r4
 901 0514 5449     		ldr	r1, .L49+8
 902 0516 6846     		mov	r0, sp
 903 0518 FFF7FEFF 		bl	sprintf
 904              	.LVL168:
 230:main.c        ****             LCD_PrintString(output);
 905              		.loc 1 230 0
 906 051c 6846     		mov	r0, sp
 907 051e FFF7FEFF 		bl	LCD_PrintString
 908              	.LVL169:
 231:main.c        ****             LCD_Position(1,0);
 909              		.loc 1 231 0
 910 0522 0021     		movs	r1, #0
 911 0524 0120     		movs	r0, #1
 912 0526 FFF7FEFF 		bl	LCD_Position
 913              	.LVL170:
 232:main.c        ****             sprintf(output,"Player 2: %s","Scissors");
 914              		.loc 1 232 0
 915 052a 2246     		mov	r2, r4
 916 052c 5849     		ldr	r1, .L49+48
 917 052e 6846     		mov	r0, sp
 918 0530 FFF7FEFF 		bl	sprintf
 919              	.LVL171:
 233:main.c        ****             LCD_PrintString(output);
 920              		.loc 1 233 0
 921 0534 6846     		mov	r0, sp
 922 0536 FFF7FEFF 		bl	LCD_PrintString
 923              	.LVL172:
 234:main.c        ****             CyDelay(1500);
 924              		.loc 1 234 0
 925 053a 40F2DC50 		movw	r0, #1500
 926 053e FFF7FEFF 		bl	CyDelay
 927              	.LVL173:
 235:main.c        ****             LCD_ClearDisplay();
 928              		.loc 1 235 0
 929 0542 0120     		movs	r0, #1
 930 0544 FFF7FEFF 		bl	LCD_WriteControl
 931              	.LVL174:
 236:main.c        ****             LCD_PrintString("TIE");
 932              		.loc 1 236 0
 933 0548 4B48     		ldr	r0, .L49+24
 934 054a FFF7FEFF 		bl	LCD_PrintString
 935              	.LVL175:
 936 054e 89E1     		b	.L35
 937              	.LVL176:
 938              	.L34:
 237:main.c        ****         }
 238:main.c        ****          else if(count1%3 == 0 && count2%3 ==1){
 939              		.loc 1 238 0
 940 0550 5BBB     		cbnz	r3, .L36
 941              		.loc 1 238 0 is_stmt 0 discriminator 1
 942 0552 434A     		ldr	r2, .L49
 943 0554 82FB0512 		smull	r1, r2, r2, r5
 944 0558 A2EBE572 		sub	r2, r2, r5, asr #31
ARM GAS  C:\Users\ANNAND~1.000\AppData\Local\Temp\ccK7hBZj.s 			page 22


 945 055c 02EB4202 		add	r2, r2, r2, lsl #1
 946 0560 AA1A     		subs	r2, r5, r2
 947 0562 012A     		cmp	r2, #1
 948 0564 21D1     		bne	.L36
 239:main.c        ****             //Scissors v Rock
 240:main.c        ****             LCD_ClearDisplay();
 949              		.loc 1 240 0 is_stmt 1
 950 0566 0120     		movs	r0, #1
 951 0568 FFF7FEFF 		bl	LCD_WriteControl
 952              	.LVL177:
 241:main.c        ****             sprintf(output,"Player 1: %s","Scissors");
 953              		.loc 1 241 0
 954 056c 474A     		ldr	r2, .L49+44
 955 056e 3E49     		ldr	r1, .L49+8
 956 0570 6846     		mov	r0, sp
 957 0572 FFF7FEFF 		bl	sprintf
 958              	.LVL178:
 242:main.c        ****             LCD_PrintString(output);
 959              		.loc 1 242 0
 960 0576 6846     		mov	r0, sp
 961 0578 FFF7FEFF 		bl	LCD_PrintString
 962              	.LVL179:
 243:main.c        ****             LCD_Position(1,0);
 963              		.loc 1 243 0
 964 057c 0021     		movs	r1, #0
 965 057e 0120     		movs	r0, #1
 966 0580 FFF7FEFF 		bl	LCD_Position
 967              	.LVL180:
 244:main.c        ****             sprintf(output,"Player 2: %s","Rock");
 968              		.loc 1 244 0
 969 0584 394A     		ldr	r2, .L49+12
 970 0586 4249     		ldr	r1, .L49+48
 971 0588 6846     		mov	r0, sp
 972 058a FFF7FEFF 		bl	sprintf
 973              	.LVL181:
 245:main.c        ****             LCD_PrintString(output);
 974              		.loc 1 245 0
 975 058e 6846     		mov	r0, sp
 976 0590 FFF7FEFF 		bl	LCD_PrintString
 977              	.LVL182:
 246:main.c        ****             CyDelay(1500);
 978              		.loc 1 246 0
 979 0594 40F2DC50 		movw	r0, #1500
 980 0598 FFF7FEFF 		bl	CyDelay
 981              	.LVL183:
 247:main.c        ****             LCD_ClearDisplay();
 982              		.loc 1 247 0
 983 059c 0120     		movs	r0, #1
 984 059e FFF7FEFF 		bl	LCD_WriteControl
 985              	.LVL184:
 248:main.c        ****             LCD_PrintString("P2 Wins");
 986              		.loc 1 248 0
 987 05a2 3C48     		ldr	r0, .L49+52
 988 05a4 FFF7FEFF 		bl	LCD_PrintString
 989              	.LVL185:
 990 05a8 5CE1     		b	.L35
 991              	.L36:
ARM GAS  C:\Users\ANNAND~1.000\AppData\Local\Temp\ccK7hBZj.s 			page 23


 249:main.c        ****         }
 250:main.c        ****          else if(count1%3 == 0 && count2%3 ==2){
 992              		.loc 1 250 0
 993 05aa 5BBB     		cbnz	r3, .L37
 994              		.loc 1 250 0 is_stmt 0 discriminator 1
 995 05ac 2C4A     		ldr	r2, .L49
 996 05ae 82FB0512 		smull	r1, r2, r2, r5
 997 05b2 A2EBE572 		sub	r2, r2, r5, asr #31
 998 05b6 02EB4202 		add	r2, r2, r2, lsl #1
 999 05ba AA1A     		subs	r2, r5, r2
 1000 05bc 022A     		cmp	r2, #2
 1001 05be 21D1     		bne	.L37
 251:main.c        ****             //Scissors v Paper
 252:main.c        ****             LCD_ClearDisplay();
 1002              		.loc 1 252 0 is_stmt 1
 1003 05c0 0120     		movs	r0, #1
 1004 05c2 FFF7FEFF 		bl	LCD_WriteControl
 1005              	.LVL186:
 253:main.c        ****             sprintf(output,"Player 1: %s","Scissors");
 1006              		.loc 1 253 0
 1007 05c6 314A     		ldr	r2, .L49+44
 1008 05c8 2749     		ldr	r1, .L49+8
 1009 05ca 6846     		mov	r0, sp
 1010 05cc FFF7FEFF 		bl	sprintf
 1011              	.LVL187:
 254:main.c        ****             LCD_PrintString(output);
 1012              		.loc 1 254 0
 1013 05d0 6846     		mov	r0, sp
 1014 05d2 FFF7FEFF 		bl	LCD_PrintString
 1015              	.LVL188:
 255:main.c        ****             LCD_Position(1,0);
 1016              		.loc 1 255 0
 1017 05d6 0021     		movs	r1, #0
 1018 05d8 0120     		movs	r0, #1
 1019 05da FFF7FEFF 		bl	LCD_Position
 1020              	.LVL189:
 256:main.c        ****             sprintf(output,"Player 2: %s","Paper");
 1021              		.loc 1 256 0
 1022 05de 214A     		ldr	r2, .L49+4
 1023 05e0 2B49     		ldr	r1, .L49+48
 1024 05e2 6846     		mov	r0, sp
 1025 05e4 FFF7FEFF 		bl	sprintf
 1026              	.LVL190:
 257:main.c        ****             LCD_PrintString(output);
 1027              		.loc 1 257 0
 1028 05e8 6846     		mov	r0, sp
 1029 05ea FFF7FEFF 		bl	LCD_PrintString
 1030              	.LVL191:
 258:main.c        ****             CyDelay(1500);
 1031              		.loc 1 258 0
 1032 05ee 40F2DC50 		movw	r0, #1500
 1033 05f2 FFF7FEFF 		bl	CyDelay
 1034              	.LVL192:
 259:main.c        ****             LCD_ClearDisplay();
 1035              		.loc 1 259 0
 1036 05f6 0120     		movs	r0, #1
 1037 05f8 FFF7FEFF 		bl	LCD_WriteControl
ARM GAS  C:\Users\ANNAND~1.000\AppData\Local\Temp\ccK7hBZj.s 			page 24


 1038              	.LVL193:
 260:main.c        ****             LCD_PrintString("P1 Wins");
 1039              		.loc 1 260 0
 1040 05fc 1D48     		ldr	r0, .L49+20
 1041 05fe FFF7FEFF 		bl	LCD_PrintString
 1042              	.LVL194:
 1043 0602 2FE1     		b	.L35
 1044              	.L37:
 261:main.c        ****         }
 262:main.c        ****         else if(count1%3 == 1 && count2%3 ==0){
 1045              		.loc 1 262 0
 1046 0604 012B     		cmp	r3, #1
 1047 0606 47D1     		bne	.L38
 1048              		.loc 1 262 0 is_stmt 0 discriminator 1
 1049 0608 154A     		ldr	r2, .L49
 1050 060a 82FB0512 		smull	r1, r2, r2, r5
 1051 060e A2EBE572 		sub	r2, r2, r5, asr #31
 1052 0612 02EB4202 		add	r2, r2, r2, lsl #1
 1053 0616 9542     		cmp	r5, r2
 1054 0618 3ED1     		bne	.L38
 263:main.c        ****             //Rock v Scissors
 264:main.c        ****             LCD_ClearDisplay();
 1055              		.loc 1 264 0 is_stmt 1
 1056 061a 0120     		movs	r0, #1
 1057 061c FFF7FEFF 		bl	LCD_WriteControl
 1058              	.LVL195:
 265:main.c        ****             sprintf(output,"Player 1: %s","Rock");
 1059              		.loc 1 265 0
 1060 0620 124A     		ldr	r2, .L49+12
 1061 0622 1149     		ldr	r1, .L49+8
 1062 0624 6846     		mov	r0, sp
 1063 0626 FFF7FEFF 		bl	sprintf
 1064              	.LVL196:
 266:main.c        ****             LCD_PrintString(output);
 1065              		.loc 1 266 0
 1066 062a 6846     		mov	r0, sp
 1067 062c FFF7FEFF 		bl	LCD_PrintString
 1068              	.LVL197:
 267:main.c        ****             LCD_Position(1,0);
 1069              		.loc 1 267 0
 1070 0630 0021     		movs	r1, #0
 1071 0632 0120     		movs	r0, #1
 1072 0634 FFF7FEFF 		bl	LCD_Position
 1073              	.LVL198:
 268:main.c        ****             sprintf(output,"Player 2: %s","Scissors");
 1074              		.loc 1 268 0
 1075 0638 144A     		ldr	r2, .L49+44
 1076 063a 1549     		ldr	r1, .L49+48
 1077 063c 6846     		mov	r0, sp
 1078 063e FFF7FEFF 		bl	sprintf
 1079              	.LVL199:
 269:main.c        ****             LCD_PrintString(output);
 1080              		.loc 1 269 0
 1081 0642 6846     		mov	r0, sp
 1082 0644 FFF7FEFF 		bl	LCD_PrintString
 1083              	.LVL200:
 270:main.c        ****             CyDelay(1500);
ARM GAS  C:\Users\ANNAND~1.000\AppData\Local\Temp\ccK7hBZj.s 			page 25


 1084              		.loc 1 270 0
 1085 0648 40F2DC50 		movw	r0, #1500
 1086 064c FFF7FEFF 		bl	CyDelay
 1087              	.LVL201:
 271:main.c        ****             LCD_ClearDisplay();
 1088              		.loc 1 271 0
 1089 0650 0120     		movs	r0, #1
 1090 0652 FFF7FEFF 		bl	LCD_WriteControl
 1091              	.LVL202:
 272:main.c        ****             LCD_PrintString("P1 Wins");
 1092              		.loc 1 272 0
 1093 0656 0748     		ldr	r0, .L49+20
 1094 0658 FFF7FEFF 		bl	LCD_PrintString
 1095              	.LVL203:
 1096 065c 02E1     		b	.L35
 1097              	.L50:
 1098 065e 00BF     		.align	2
 1099              	.L49:
 1100 0660 56555555 		.word	1431655766
 1101 0664 58000000 		.word	.LC9
 1102 0668 2C000000 		.word	.LC4
 1103 066c 48000000 		.word	.LC7
 1104 0670 3C000000 		.word	.LC5
 1105 0674 60000000 		.word	.LC10
 1106 0678 44000000 		.word	.LC6
 1107 067c 68000000 		.word	.LC11
 1108 0680 7C000000 		.word	.LC12
 1109 0684 18000000 		.word	.LC2
 1110 0688 88000000 		.word	.LC13
 1111 068c 20000000 		.word	.LC3
 1112 0690 90000000 		.word	.LC14
 1113 0694 A0000000 		.word	.LC15
 1114              	.L38:
 273:main.c        ****         }
 274:main.c        ****         else if(count1%3 == 1 && count2%3 ==1){
 1115              		.loc 1 274 0
 1116 0698 012B     		cmp	r3, #1
 1117 069a 2CD1     		bne	.L39
 1118              		.loc 1 274 0 is_stmt 0 discriminator 1
 1119 069c 804A     		ldr	r2, .L51
 1120 069e 82FB0512 		smull	r1, r2, r2, r5
 1121 06a2 A2EBE572 		sub	r2, r2, r5, asr #31
 1122 06a6 02EB4202 		add	r2, r2, r2, lsl #1
 1123 06aa AA1A     		subs	r2, r5, r2
 1124 06ac 012A     		cmp	r2, #1
 1125 06ae 22D1     		bne	.L39
 275:main.c        ****             //Rock v Rock
 276:main.c        ****             LCD_ClearDisplay();
 1126              		.loc 1 276 0 is_stmt 1
 1127 06b0 0120     		movs	r0, #1
 1128 06b2 FFF7FEFF 		bl	LCD_WriteControl
 1129              	.LVL204:
 277:main.c        ****             sprintf(output,"Player 1: %s","Rock");
 1130              		.loc 1 277 0
 1131 06b6 7B4C     		ldr	r4, .L51+4
 1132              	.LVL205:
 1133 06b8 2246     		mov	r2, r4
ARM GAS  C:\Users\ANNAND~1.000\AppData\Local\Temp\ccK7hBZj.s 			page 26


 1134 06ba 7B49     		ldr	r1, .L51+8
 1135 06bc 6846     		mov	r0, sp
 1136 06be FFF7FEFF 		bl	sprintf
 1137              	.LVL206:
 278:main.c        ****             LCD_PrintString(output);
 1138              		.loc 1 278 0
 1139 06c2 6846     		mov	r0, sp
 1140 06c4 FFF7FEFF 		bl	LCD_PrintString
 1141              	.LVL207:
 279:main.c        ****             LCD_Position(1,0);
 1142              		.loc 1 279 0
 1143 06c8 0021     		movs	r1, #0
 1144 06ca 0120     		movs	r0, #1
 1145 06cc FFF7FEFF 		bl	LCD_Position
 1146              	.LVL208:
 280:main.c        ****             sprintf(output,"Player 2: %s","Rock");
 1147              		.loc 1 280 0
 1148 06d0 2246     		mov	r2, r4
 1149 06d2 7649     		ldr	r1, .L51+12
 1150 06d4 6846     		mov	r0, sp
 1151 06d6 FFF7FEFF 		bl	sprintf
 1152              	.LVL209:
 281:main.c        ****             LCD_PrintString(output);
 1153              		.loc 1 281 0
 1154 06da 6846     		mov	r0, sp
 1155 06dc FFF7FEFF 		bl	LCD_PrintString
 1156              	.LVL210:
 282:main.c        ****             CyDelay(1500);
 1157              		.loc 1 282 0
 1158 06e0 40F2DC50 		movw	r0, #1500
 1159 06e4 FFF7FEFF 		bl	CyDelay
 1160              	.LVL211:
 283:main.c        ****             LCD_ClearDisplay();
 1161              		.loc 1 283 0
 1162 06e8 0120     		movs	r0, #1
 1163 06ea FFF7FEFF 		bl	LCD_WriteControl
 1164              	.LVL212:
 284:main.c        ****             LCD_PrintString("TIE");
 1165              		.loc 1 284 0
 1166 06ee 7048     		ldr	r0, .L51+16
 1167 06f0 FFF7FEFF 		bl	LCD_PrintString
 1168              	.LVL213:
 1169 06f4 B6E0     		b	.L35
 1170              	.LVL214:
 1171              	.L39:
 285:main.c        ****         }
 286:main.c        ****         else if(count1%3 == 1 && count2%3 ==2){
 1172              		.loc 1 286 0
 1173 06f6 012B     		cmp	r3, #1
 1174 06f8 2BD1     		bne	.L40
 1175              		.loc 1 286 0 is_stmt 0 discriminator 1
 1176 06fa 694A     		ldr	r2, .L51
 1177 06fc 82FB0512 		smull	r1, r2, r2, r5
 1178 0700 A2EBE572 		sub	r2, r2, r5, asr #31
 1179 0704 02EB4202 		add	r2, r2, r2, lsl #1
 1180 0708 AA1A     		subs	r2, r5, r2
 1181 070a 022A     		cmp	r2, #2
ARM GAS  C:\Users\ANNAND~1.000\AppData\Local\Temp\ccK7hBZj.s 			page 27


 1182 070c 21D1     		bne	.L40
 287:main.c        ****             //Rock v Paper
 288:main.c        ****             LCD_ClearDisplay();
 1183              		.loc 1 288 0 is_stmt 1
 1184 070e 0120     		movs	r0, #1
 1185 0710 FFF7FEFF 		bl	LCD_WriteControl
 1186              	.LVL215:
 289:main.c        ****             sprintf(output,"Player 1: %s","Rock");
 1187              		.loc 1 289 0
 1188 0714 634A     		ldr	r2, .L51+4
 1189 0716 6449     		ldr	r1, .L51+8
 1190 0718 6846     		mov	r0, sp
 1191 071a FFF7FEFF 		bl	sprintf
 1192              	.LVL216:
 290:main.c        ****             LCD_PrintString(output);
 1193              		.loc 1 290 0
 1194 071e 6846     		mov	r0, sp
 1195 0720 FFF7FEFF 		bl	LCD_PrintString
 1196              	.LVL217:
 291:main.c        ****             LCD_Position(1,0);
 1197              		.loc 1 291 0
 1198 0724 0021     		movs	r1, #0
 1199 0726 0120     		movs	r0, #1
 1200 0728 FFF7FEFF 		bl	LCD_Position
 1201              	.LVL218:
 292:main.c        ****             sprintf(output,"Player 2: %s","Paper");
 1202              		.loc 1 292 0
 1203 072c 614A     		ldr	r2, .L51+20
 1204 072e 5F49     		ldr	r1, .L51+12
 1205 0730 6846     		mov	r0, sp
 1206 0732 FFF7FEFF 		bl	sprintf
 1207              	.LVL219:
 293:main.c        ****             LCD_PrintString(output);
 1208              		.loc 1 293 0
 1209 0736 6846     		mov	r0, sp
 1210 0738 FFF7FEFF 		bl	LCD_PrintString
 1211              	.LVL220:
 294:main.c        ****             CyDelay(1500);
 1212              		.loc 1 294 0
 1213 073c 40F2DC50 		movw	r0, #1500
 1214 0740 FFF7FEFF 		bl	CyDelay
 1215              	.LVL221:
 295:main.c        ****             LCD_ClearDisplay();
 1216              		.loc 1 295 0
 1217 0744 0120     		movs	r0, #1
 1218 0746 FFF7FEFF 		bl	LCD_WriteControl
 1219              	.LVL222:
 296:main.c        ****             LCD_PrintString("P2 Wins");
 1220              		.loc 1 296 0
 1221 074a 5B48     		ldr	r0, .L51+24
 1222 074c FFF7FEFF 		bl	LCD_PrintString
 1223              	.LVL223:
 1224 0750 88E0     		b	.L35
 1225              	.L40:
 297:main.c        ****         }
 298:main.c        ****         else if(count1%3 == 2 && count2%3 ==0){
 1226              		.loc 1 298 0
ARM GAS  C:\Users\ANNAND~1.000\AppData\Local\Temp\ccK7hBZj.s 			page 28


 1227 0752 022B     		cmp	r3, #2
 1228 0754 2AD1     		bne	.L41
 1229              		.loc 1 298 0 is_stmt 0 discriminator 1
 1230 0756 524A     		ldr	r2, .L51
 1231 0758 82FB0512 		smull	r1, r2, r2, r5
 1232 075c A2EBE572 		sub	r2, r2, r5, asr #31
 1233 0760 02EB4202 		add	r2, r2, r2, lsl #1
 1234 0764 9542     		cmp	r5, r2
 1235 0766 21D1     		bne	.L41
 299:main.c        ****             //Paper v Scissors
 300:main.c        ****             LCD_ClearDisplay();
 1236              		.loc 1 300 0 is_stmt 1
 1237 0768 0120     		movs	r0, #1
 1238 076a FFF7FEFF 		bl	LCD_WriteControl
 1239              	.LVL224:
 301:main.c        ****             sprintf(output,"Player 1: %s","Paper");
 1240              		.loc 1 301 0
 1241 076e 514A     		ldr	r2, .L51+20
 1242 0770 4D49     		ldr	r1, .L51+8
 1243 0772 6846     		mov	r0, sp
 1244 0774 FFF7FEFF 		bl	sprintf
 1245              	.LVL225:
 302:main.c        ****             LCD_PrintString(output);
 1246              		.loc 1 302 0
 1247 0778 6846     		mov	r0, sp
 1248 077a FFF7FEFF 		bl	LCD_PrintString
 1249              	.LVL226:
 303:main.c        ****             LCD_Position(1,0);
 1250              		.loc 1 303 0
 1251 077e 0021     		movs	r1, #0
 1252 0780 0120     		movs	r0, #1
 1253 0782 FFF7FEFF 		bl	LCD_Position
 1254              	.LVL227:
 304:main.c        ****             sprintf(output,"Player 2: %s","Scissors");
 1255              		.loc 1 304 0
 1256 0786 4D4A     		ldr	r2, .L51+28
 1257 0788 4849     		ldr	r1, .L51+12
 1258 078a 6846     		mov	r0, sp
 1259 078c FFF7FEFF 		bl	sprintf
 1260              	.LVL228:
 305:main.c        ****             LCD_PrintString(output);
 1261              		.loc 1 305 0
 1262 0790 6846     		mov	r0, sp
 1263 0792 FFF7FEFF 		bl	LCD_PrintString
 1264              	.LVL229:
 306:main.c        ****             CyDelay(1500);
 1265              		.loc 1 306 0
 1266 0796 40F2DC50 		movw	r0, #1500
 1267 079a FFF7FEFF 		bl	CyDelay
 1268              	.LVL230:
 307:main.c        ****             LCD_ClearDisplay();
 1269              		.loc 1 307 0
 1270 079e 0120     		movs	r0, #1
 1271 07a0 FFF7FEFF 		bl	LCD_WriteControl
 1272              	.LVL231:
 308:main.c        ****             LCD_PrintString("P2 Wins");
 1273              		.loc 1 308 0
ARM GAS  C:\Users\ANNAND~1.000\AppData\Local\Temp\ccK7hBZj.s 			page 29


 1274 07a4 4448     		ldr	r0, .L51+24
 1275 07a6 FFF7FEFF 		bl	LCD_PrintString
 1276              	.LVL232:
 1277 07aa 5BE0     		b	.L35
 1278              	.L41:
 309:main.c        ****         }
 310:main.c        ****         else if(count1%3 == 2 && count2%3 ==1){
 1279              		.loc 1 310 0
 1280 07ac 022B     		cmp	r3, #2
 1281 07ae 2BD1     		bne	.L42
 1282              		.loc 1 310 0 is_stmt 0 discriminator 1
 1283 07b0 3B4A     		ldr	r2, .L51
 1284 07b2 82FB0512 		smull	r1, r2, r2, r5
 1285 07b6 A2EBE572 		sub	r2, r2, r5, asr #31
 1286 07ba 02EB4202 		add	r2, r2, r2, lsl #1
 1287 07be AA1A     		subs	r2, r5, r2
 1288 07c0 012A     		cmp	r2, #1
 1289 07c2 21D1     		bne	.L42
 311:main.c        ****             //Paper v Rock
 312:main.c        ****             LCD_ClearDisplay();
 1290              		.loc 1 312 0 is_stmt 1
 1291 07c4 0120     		movs	r0, #1
 1292 07c6 FFF7FEFF 		bl	LCD_WriteControl
 1293              	.LVL233:
 313:main.c        ****             sprintf(output,"Player 1: %s","Paper");
 1294              		.loc 1 313 0
 1295 07ca 3A4A     		ldr	r2, .L51+20
 1296 07cc 3649     		ldr	r1, .L51+8
 1297 07ce 6846     		mov	r0, sp
 1298 07d0 FFF7FEFF 		bl	sprintf
 1299              	.LVL234:
 314:main.c        ****             LCD_PrintString(output);
 1300              		.loc 1 314 0
 1301 07d4 6846     		mov	r0, sp
 1302 07d6 FFF7FEFF 		bl	LCD_PrintString
 1303              	.LVL235:
 315:main.c        ****             LCD_Position(1,0);
 1304              		.loc 1 315 0
 1305 07da 0021     		movs	r1, #0
 1306 07dc 0120     		movs	r0, #1
 1307 07de FFF7FEFF 		bl	LCD_Position
 1308              	.LVL236:
 316:main.c        ****             sprintf(output,"Player 2: %s","Rock");
 1309              		.loc 1 316 0
 1310 07e2 304A     		ldr	r2, .L51+4
 1311 07e4 3149     		ldr	r1, .L51+12
 1312 07e6 6846     		mov	r0, sp
 1313 07e8 FFF7FEFF 		bl	sprintf
 1314              	.LVL237:
 317:main.c        ****             LCD_PrintString(output);
 1315              		.loc 1 317 0
 1316 07ec 6846     		mov	r0, sp
 1317 07ee FFF7FEFF 		bl	LCD_PrintString
 1318              	.LVL238:
 318:main.c        ****             CyDelay(1500);
 1319              		.loc 1 318 0
 1320 07f2 40F2DC50 		movw	r0, #1500
ARM GAS  C:\Users\ANNAND~1.000\AppData\Local\Temp\ccK7hBZj.s 			page 30


 1321 07f6 FFF7FEFF 		bl	CyDelay
 1322              	.LVL239:
 319:main.c        ****             LCD_ClearDisplay();
 1323              		.loc 1 319 0
 1324 07fa 0120     		movs	r0, #1
 1325 07fc FFF7FEFF 		bl	LCD_WriteControl
 1326              	.LVL240:
 320:main.c        ****             LCD_PrintString("P1 Wins");
 1327              		.loc 1 320 0
 1328 0800 2F48     		ldr	r0, .L51+32
 1329 0802 FFF7FEFF 		bl	LCD_PrintString
 1330              	.LVL241:
 1331 0806 2DE0     		b	.L35
 1332              	.L42:
 321:main.c        ****         }
 322:main.c        ****         else if(count1%3 == 2 && count2%3 == 2){
 1333              		.loc 1 322 0
 1334 0808 022B     		cmp	r3, #2
 1335 080a 2BD1     		bne	.L35
 1336              		.loc 1 322 0 is_stmt 0 discriminator 1
 1337 080c 244B     		ldr	r3, .L51
 1338 080e 83FB0523 		smull	r2, r3, r3, r5
 1339 0812 A3EBE573 		sub	r3, r3, r5, asr #31
 1340 0816 03EB4303 		add	r3, r3, r3, lsl #1
 1341 081a EB1A     		subs	r3, r5, r3
 1342 081c 022B     		cmp	r3, #2
 1343 081e 21D1     		bne	.L35
 323:main.c        ****             //Paper v Paper
 324:main.c        ****             LCD_ClearDisplay();
 1344              		.loc 1 324 0 is_stmt 1
 1345 0820 0120     		movs	r0, #1
 1346 0822 FFF7FEFF 		bl	LCD_WriteControl
 1347              	.LVL242:
 325:main.c        ****             sprintf(output,"Player 1: %s","Paper");
 1348              		.loc 1 325 0
 1349 0826 234C     		ldr	r4, .L51+20
 1350              	.LVL243:
 1351 0828 2246     		mov	r2, r4
 1352 082a 1F49     		ldr	r1, .L51+8
 1353 082c 6846     		mov	r0, sp
 1354 082e FFF7FEFF 		bl	sprintf
 1355              	.LVL244:
 326:main.c        ****             LCD_PrintString(output);
 1356              		.loc 1 326 0
 1357 0832 6846     		mov	r0, sp
 1358 0834 FFF7FEFF 		bl	LCD_PrintString
 1359              	.LVL245:
 327:main.c        ****             LCD_Position(1,0);
 1360              		.loc 1 327 0
 1361 0838 0021     		movs	r1, #0
 1362 083a 0120     		movs	r0, #1
 1363 083c FFF7FEFF 		bl	LCD_Position
 1364              	.LVL246:
 328:main.c        ****             sprintf(output,"Player 2: %s","Paper");
 1365              		.loc 1 328 0
 1366 0840 2246     		mov	r2, r4
 1367 0842 1A49     		ldr	r1, .L51+12
ARM GAS  C:\Users\ANNAND~1.000\AppData\Local\Temp\ccK7hBZj.s 			page 31


 1368 0844 6846     		mov	r0, sp
 1369 0846 FFF7FEFF 		bl	sprintf
 1370              	.LVL247:
 329:main.c        ****             LCD_PrintString(output);
 1371              		.loc 1 329 0
 1372 084a 6846     		mov	r0, sp
 1373 084c FFF7FEFF 		bl	LCD_PrintString
 1374              	.LVL248:
 330:main.c        ****             CyDelay(1500);
 1375              		.loc 1 330 0
 1376 0850 40F2DC50 		movw	r0, #1500
 1377 0854 FFF7FEFF 		bl	CyDelay
 1378              	.LVL249:
 331:main.c        ****             LCD_ClearDisplay();
 1379              		.loc 1 331 0
 1380 0858 0120     		movs	r0, #1
 1381 085a FFF7FEFF 		bl	LCD_WriteControl
 1382              	.LVL250:
 332:main.c        ****             LCD_PrintString("TIE");
 1383              		.loc 1 332 0
 1384 085e 1448     		ldr	r0, .L51+16
 1385 0860 FFF7FEFF 		bl	LCD_PrintString
 1386              	.LVL251:
 1387              	.L35:
 333:main.c        ****         }
 334:main.c        ****         CyDelay(1500);
 1388              		.loc 1 334 0
 1389 0864 40F2DC50 		movw	r0, #1500
 1390 0868 FFF7FEFF 		bl	CyDelay
 1391              	.LVL252:
 335:main.c        ****         LCD_ClearDisplay();
 1392              		.loc 1 335 0
 1393 086c 0120     		movs	r0, #1
 1394 086e FFF7FEFF 		bl	LCD_WriteControl
 1395              	.LVL253:
 336:main.c        ****         LCD_PrintString("Press Any Button");                        //Restart Section
 1396              		.loc 1 336 0
 1397 0872 1448     		ldr	r0, .L51+36
 1398 0874 FFF7FEFF 		bl	LCD_PrintString
 1399              	.LVL254:
 337:main.c        ****         LCD_Position(1,0);
 1400              		.loc 1 337 0
 1401 0878 0021     		movs	r1, #0
 1402 087a 0120     		movs	r0, #1
 1403 087c FFF7FEFF 		bl	LCD_Position
 1404              	.LVL255:
 338:main.c        ****         LCD_PrintString("to restart");
 1405              		.loc 1 338 0
 1406 0880 1148     		ldr	r0, .L51+40
 1407 0882 FFF7FEFF 		bl	LCD_PrintString
 1408              	.LVL256:
 1409              	.L44:
 339:main.c        ****         while(SW_1_Read()==1 && SW_2_Read()==1){
 1410              		.loc 1 339 0 discriminator 2
 1411 0886 FFF7FEFF 		bl	SW_1_Read
 1412              	.LVL257:
 1413 088a 0128     		cmp	r0, #1
ARM GAS  C:\Users\ANNAND~1.000\AppData\Local\Temp\ccK7hBZj.s 			page 32


 1414 088c 03D1     		bne	.L43
 1415              		.loc 1 339 0 is_stmt 0 discriminator 1
 1416 088e FFF7FEFF 		bl	SW_2_Read
 1417              	.LVL258:
 1418 0892 0128     		cmp	r0, #1
 1419 0894 F7D0     		beq	.L44
 1420              	.L43:
 340:main.c        ****         }
 341:main.c        ****         CyDelay(100);
 1421              		.loc 1 341 0 is_stmt 1
 1422 0896 6420     		movs	r0, #100
 1423 0898 FFF7FEFF 		bl	CyDelay
 1424              	.LVL259:
 1425 089c FFF7B7BB 		b	.L2
 1426              	.L52:
 1427              		.align	2
 1428              	.L51:
 1429 08a0 56555555 		.word	1431655766
 1430 08a4 48000000 		.word	.LC7
 1431 08a8 2C000000 		.word	.LC4
 1432 08ac 90000000 		.word	.LC14
 1433 08b0 44000000 		.word	.LC6
 1434 08b4 58000000 		.word	.LC9
 1435 08b8 A0000000 		.word	.LC15
 1436 08bc 20000000 		.word	.LC3
 1437 08c0 60000000 		.word	.LC10
 1438 08c4 68000000 		.word	.LC11
 1439 08c8 7C000000 		.word	.LC12
 1440              	.LBE7:
 1441              	.LBE2:
 1442              		.cfi_endproc
 1443              	.LFE64:
 1444              		.size	main, .-main
 1445              		.section	.rodata.str1.4,"aMS",%progbits,1
 1446              		.align	2
 1447              	.LC0:
 1448 0000 4C3A3120 		.ascii	"L:1 Player\000"
 1448      506C6179 
 1448      657200
 1449 000b 00       		.space	1
 1450              	.LC1:
 1451 000c 523A3220 		.ascii	"R:2 Player\000"
 1451      506C6179 
 1451      657200
 1452 0017 00       		.space	1
 1453              	.LC2:
 1454 0018 50312047 		.ascii	"P1 GO!\000"
 1454      4F2100
 1455 001f 00       		.space	1
 1456              	.LC3:
 1457 0020 53636973 		.ascii	"Scissors\000"
 1457      736F7273 
 1457      00
 1458 0029 000000   		.space	3
 1459              	.LC4:
 1460 002c 506C6179 		.ascii	"Player 1: %s\000"
 1460      65722031 
ARM GAS  C:\Users\ANNAND~1.000\AppData\Local\Temp\ccK7hBZj.s 			page 33


 1460      3A202573 
 1460      00
 1461 0039 000000   		.space	3
 1462              	.LC5:
 1463 003c 41493A20 		.ascii	"AI: %s\000"
 1463      257300
 1464 0043 00       		.space	1
 1465              	.LC6:
 1466 0044 54494500 		.ascii	"TIE\000"
 1467              	.LC7:
 1468 0048 526F636B 		.ascii	"Rock\000"
 1468      00
 1469 004d 000000   		.space	3
 1470              	.LC8:
 1471 0050 41492057 		.ascii	"AI Wins\000"
 1471      696E7300 
 1472              	.LC9:
 1473 0058 50617065 		.ascii	"Paper\000"
 1473      7200
 1474 005e 0000     		.space	2
 1475              	.LC10:
 1476 0060 50312057 		.ascii	"P1 Wins\000"
 1476      696E7300 
 1477              	.LC11:
 1478 0068 50726573 		.ascii	"Press Any Button\000"
 1478      7320416E 
 1478      79204275 
 1478      74746F6E 
 1478      00
 1479 0079 000000   		.space	3
 1480              	.LC12:
 1481 007c 746F2072 		.ascii	"to restart\000"
 1481      65737461 
 1481      727400
 1482 0087 00       		.space	1
 1483              	.LC13:
 1484 0088 50322047 		.ascii	"P2 GO!\000"
 1484      4F2100
 1485 008f 00       		.space	1
 1486              	.LC14:
 1487 0090 506C6179 		.ascii	"Player 2: %s\000"
 1487      65722032 
 1487      3A202573 
 1487      00
 1488 009d 000000   		.space	3
 1489              	.LC15:
 1490 00a0 50322057 		.ascii	"P2 Wins\000"
 1490      696E7300 
 1491              		.text
 1492              	.Letext0:
 1493              		.file 2 "c:\\program files (x86)\\cypress\\psoc creator\\4.2\\psoc creator\\import\\gnu\\arm\\5.4.
 1494              		.file 3 "c:\\program files (x86)\\cypress\\psoc creator\\4.2\\psoc creator\\import\\gnu\\arm\\5.4.
 1495              		.file 4 "Generated_Source\\PSoC5/LED_Driver_1.h"
 1496              		.file 5 "Generated_Source\\PSoC5/CyLib.h"
 1497              		.file 6 "Generated_Source\\PSoC5/SW_1.h"
 1498              		.file 7 "Generated_Source\\PSoC5/LCD.h"
 1499              		.file 8 "c:\\program files (x86)\\cypress\\psoc creator\\4.2\\psoc creator\\import\\gnu\\arm\\5.4.
ARM GAS  C:\Users\ANNAND~1.000\AppData\Local\Temp\ccK7hBZj.s 			page 34


 1500              		.file 9 "c:\\program files (x86)\\cypress\\psoc creator\\4.2\\psoc creator\\import\\gnu\\arm\\5.4.
 1501              		.file 10 "Generated_Source\\PSoC5/SW_2.h"
 1502              		.file 11 "Generated_Source\\PSoC5/core_cm3.h"